target datalayout = "e-m:e-p270:32:32-p271:32:32-p272:64:64-i64:64-i128:128-f80:128-n8:16:32:64-S128"
target triple = "x86_64-pc-linux-gnu"

%struct.ident_t = type { i32, i32, i32, i32, ptr }
%"class.LightGBM::ObjectiveFunction" = type { ptr }
%"class.LightGBM::CrossEntropyLambda" = type <{ %"class.LightGBM::ObjectiveFunction", i32, [4 x i8], ptr, ptr, float, float, i8, [7 x i8] }>

@1 = private unnamed_addr constant %struct.ident_t { i32 0, i32 514, i32 0, i32 22, ptr @0 }, align 8

; Function Attrs: alwaysinline norecurse nounwind uwtable
define internal void @_ZNK8LightGBM18CrossEntropyLambda12GetGradientsEPKdPfS3_.omp_outlined.77(ptr noalias noundef %0, ptr noalias noundef %1, ptr noundef %2, ptr noundef nonnull align 8 dereferenceable(8) %3, ptr noundef nonnull align 8 dereferenceable(8) %4, ptr noundef nonnull align 8 dereferenceable(8) %5) #16 {
  %7 = alloca ptr, align 8
  %8 = alloca ptr, align 8
  %9 = alloca ptr, align 8
  %10 = alloca ptr, align 8
  %11 = alloca ptr, align 8
  %12 = alloca ptr, align 8
  %13 = alloca i32, align 4
  %14 = alloca i32, align 4
  %15 = alloca i32, align 4
  %16 = alloca i32, align 4
  %17 = alloca i32, align 4
  %18 = alloca i32, align 4
  %19 = alloca i32, align 4
  %20 = alloca i32, align 4
  %21 = alloca i32, align 4
  %22 = alloca double, align 8
  %23 = alloca double, align 8
  %24 = alloca double, align 8
  %25 = alloca double, align 8
  %26 = alloca double, align 8
  %27 = alloca double, align 8
  %28 = alloca double, align 8
  %29 = alloca double, align 8
  %30 = alloca double, align 8
  %31 = alloca double, align 8
  store ptr %0, ptr %7, align 8, !tbaa !193
  store ptr %1, ptr %8, align 8, !tbaa !193
  store ptr %2, ptr %9, align 8, !tbaa !151
  store ptr %3, ptr %10, align 8, !tbaa !224
  store ptr %4, ptr %11, align 8, !tbaa !216
  store ptr %5, ptr %12, align 8, !tbaa !216
  %32 = load ptr, ptr %9, align 8, !tbaa !151
  %33 = load ptr, ptr %10, align 8, !tbaa !224
  %34 = load ptr, ptr %11, align 8, !tbaa !216
  %35 = load ptr, ptr %12, align 8, !tbaa !216
  call void @llvm.lifetime.start.p0(i64 4, ptr %13) #3
  call void @llvm.lifetime.start.p0(i64 4, ptr %14) #3
  %36 = getelementptr inbounds nuw %"class.LightGBM::CrossEntropyLambda", ptr %32, i32 0, i32 1
  %37 = load i32, ptr %36, align 8, !tbaa !818
  store i32 %37, ptr %14, align 4, !tbaa !141
  call void @llvm.lifetime.start.p0(i64 4, ptr %15) #3
  %38 = load i32, ptr %14, align 4, !tbaa !141
  %39 = sub nsw i32 %38, 0
  %40 = sdiv i32 %39, 1
  %41 = sub nsw i32 %40, 1
  store i32 %41, ptr %15, align 4, !tbaa !141
  call void @llvm.lifetime.start.p0(i64 4, ptr %16) #3
  store i32 0, ptr %16, align 4, !tbaa !141
  call void @llvm.lifetime.end.p0(i64 4, ptr %16) #3
  %42 = load i32, ptr %14, align 4, !tbaa !141
  %43 = icmp slt i32 0, %42
  br i1 %43, label %44, label %154

44:                                               ; preds = %6
  call void @llvm.lifetime.start.p0(i64 4, ptr %17) #3
  store i32 0, ptr %17, align 4, !tbaa !141
  call void @llvm.lifetime.start.p0(i64 4, ptr %18) #3
  %45 = load i32, ptr %15, align 4, !tbaa !141
  store i32 %45, ptr %18, align 4, !tbaa !141
  call void @llvm.lifetime.start.p0(i64 4, ptr %19) #3
  store i32 1, ptr %19, align 4, !tbaa !141
  call void @llvm.lifetime.start.p0(i64 4, ptr %20) #3
  store i32 0, ptr %20, align 4, !tbaa !141
  call void @llvm.lifetime.start.p0(i64 4, ptr %21) #3
  %46 = load ptr, ptr %7, align 8
  %47 = load i32, ptr %46, align 4, !tbaa !141
  call void @__kmpc_for_static_init_4(ptr @1, i32 %47, i32 34, ptr %20, ptr %17, ptr %18, ptr %19, i32 1, i32 1)
  %48 = load i32, ptr %18, align 4, !tbaa !141
  %49 = load i32, ptr %15, align 4, !tbaa !141
  %50 = icmp sgt i32 %48, %49
  br i1 %50, label %51, label %53

51:                                               ; preds = %44
  %52 = load i32, ptr %15, align 4, !tbaa !141
  br label %55

53:                                               ; preds = %44
  %54 = load i32, ptr %18, align 4, !tbaa !141
  br label %55

55:                                               ; preds = %53, %51
  %56 = phi i32 [ %52, %51 ], [ %54, %53 ]
  store i32 %56, ptr %18, align 4, !tbaa !141
  %57 = load i32, ptr %17, align 4, !tbaa !141
  store i32 %57, ptr %13, align 4, !tbaa !141
  br label %58

58:                                               ; preds = %147, %55
  %59 = load i32, ptr %13, align 4, !tbaa !141
  %60 = load i32, ptr %18, align 4, !tbaa !141
  %61 = icmp sle i32 %59, %60
  br i1 %61, label %63, label %62

62:                                               ; preds = %58
  br label %150

63:                                               ; preds = %58
  %64 = load i32, ptr %13, align 4, !tbaa !141
  %65 = mul nsw i32 %64, 1
  %66 = add nsw i32 0, %65
  store i32 %66, ptr %21, align 4, !tbaa !141
  call void @llvm.lifetime.start.p0(i64 8, ptr %22) #3
  %67 = getelementptr inbounds nuw %"class.LightGBM::CrossEntropyLambda", ptr %32, i32 0, i32 4
  %68 = load ptr, ptr %67, align 8, !tbaa !820
  %69 = load i32, ptr %21, align 4, !tbaa !141
  %70 = sext i32 %69 to i64
  %71 = getelementptr inbounds float, ptr %68, i64 %70
  %72 = load float, ptr %71, align 4, !tbaa !210
  %73 = fpext float %72 to double
  store double %73, ptr %22, align 8, !tbaa !194
  call void @llvm.lifetime.start.p0(i64 8, ptr %23) #3
  %74 = getelementptr inbounds nuw %"class.LightGBM::CrossEntropyLambda", ptr %32, i32 0, i32 3
  %75 = load ptr, ptr %74, align 8, !tbaa !819
  %76 = load i32, ptr %21, align 4, !tbaa !141
  %77 = sext i32 %76 to i64
  %78 = getelementptr inbounds float, ptr %75, i64 %77
  %79 = load float, ptr %78, align 4, !tbaa !210
  %80 = fpext float %79 to double
  store double %80, ptr %23, align 8, !tbaa !194
  call void @llvm.lifetime.start.p0(i64 8, ptr %24) #3
  %81 = load ptr, ptr %33, align 8, !tbaa !191
  %82 = load i32, ptr %21, align 4, !tbaa !141
  %83 = sext i32 %82 to i64
  %84 = getelementptr inbounds double, ptr %81, i64 %83
  %85 = load double, ptr %84, align 8, !tbaa !194
  %86 = call double @exp(double noundef %85) #3, !tbaa !141
  store double %86, ptr %24, align 8, !tbaa !194
  call void @llvm.lifetime.start.p0(i64 8, ptr %25) #3
  %87 = load double, ptr %24, align 8, !tbaa !194
  %88 = call double @log1p(double noundef %87) #3, !tbaa !141
  store double %88, ptr %25, align 8, !tbaa !194
  call void @llvm.lifetime.start.p0(i64 8, ptr %26) #3
  %89 = load double, ptr %22, align 8, !tbaa !194
  %90 = fneg double %89
  %91 = load double, ptr %25, align 8, !tbaa !194
  %92 = fmul double %90, %91
  %93 = call double @exp(double noundef %92) #3, !tbaa !141
  %94 = fsub double 1.000000e+00, %93
  store double %94, ptr %26, align 8, !tbaa !194
  call void @llvm.lifetime.start.p0(i64 8, ptr %27) #3
  %95 = load double, ptr %24, align 8, !tbaa !194
  %96 = fdiv double 1.000000e+00, %95
  store double %96, ptr %27, align 8, !tbaa !194
  %97 = load double, ptr %23, align 8, !tbaa !194
  %98 = load double, ptr %26, align 8, !tbaa !194
  %99 = fdiv double %97, %98
  %100 = fsub double 1.000000e+00, %99
  %101 = load double, ptr %22, align 8, !tbaa !194
  %102 = fmul double %100, %101
  %103 = load double, ptr %27, align 8, !tbaa !194
  %104 = fadd double 1.000000e+00, %103
  %105 = fdiv double %102, %104
  %106 = fptrunc double %105 to float
  %107 = load ptr, ptr %34, align 8, !tbaa !192
  %108 = load i32, ptr %21, align 4, !tbaa !141
  %109 = sext i32 %108 to i64
  %110 = getelementptr inbounds float, ptr %107, i64 %109
  store float %106, ptr %110, align 4, !tbaa !210
  call void @llvm.lifetime.start.p0(i64 8, ptr %28) #3
  %111 = load double, ptr %26, align 8, !tbaa !194
  %112 = fsub double 1.000000e+00, %111
  %113 = fdiv double 1.000000e+00, %112
  store double %113, ptr %28, align 8, !tbaa !194
  call void @llvm.lifetime.start.p0(i64 8, ptr %29) #3
  %114 = load double, ptr %24, align 8, !tbaa !194
  %115 = fadd double 1.000000e+00, %114
  store double %115, ptr %29, align 8, !tbaa !194
  call void @llvm.lifetime.start.p0(i64 8, ptr %30) #3
  %116 = load double, ptr %22, align 8, !tbaa !194
  %117 = load double, ptr %24, align 8, !tbaa !194
  %118 = fmul double %116, %117
  %119 = load double, ptr %29, align 8, !tbaa !194
  %120 = load double, ptr %29, align 8, !tbaa !194
  %121 = fmul double %119, %120
  %122 = fdiv double %118, %121
  store double %122, ptr %30, align 8, !tbaa !194
  %123 = load double, ptr %28, align 8, !tbaa !194
  %124 = fsub double %123, 1.000000e+00
  store double %124, ptr %29, align 8, !tbaa !194
  call void @llvm.lifetime.start.p0(i64 8, ptr %31) #3
  %125 = load double, ptr %28, align 8, !tbaa !194
  %126 = load double, ptr %29, align 8, !tbaa !194
  %127 = load double, ptr %29, align 8, !tbaa !194
  %128 = fmul double %126, %127
  %129 = fdiv double %125, %128
  %130 = load double, ptr %22, align 8, !tbaa !194
  %131 = load double, ptr %24, align 8, !tbaa !194
  %132 = call double @llvm.fmuladd.f64(double %130, double %131, double 1.000000e+00)
  %133 = load double, ptr %28, align 8, !tbaa !194
  %134 = fsub double %132, %133
  %135 = fmul double %129, %134
  store double %135, ptr %31, align 8, !tbaa !194
  %136 = load double, ptr %30, align 8, !tbaa !194
  %137 = load double, ptr %23, align 8, !tbaa !194
  %138 = load double, ptr %31, align 8, !tbaa !194
  %139 = call double @llvm.fmuladd.f64(double %137, double %138, double 1.000000e+00)
  %140 = fmul double %136, %139
  %141 = fptrunc double %140 to float
  %142 = load ptr, ptr %35, align 8, !tbaa !192
  %143 = load i32, ptr %21, align 4, !tbaa !141
  %144 = sext i32 %143 to i64
  %145 = getelementptr inbounds float, ptr %142, i64 %144
  store float %141, ptr %145, align 4, !tbaa !210
  call void @llvm.lifetime.end.p0(i64 8, ptr %31) #3
  call void @llvm.lifetime.end.p0(i64 8, ptr %30) #3
  call void @llvm.lifetime.end.p0(i64 8, ptr %29) #3
  call void @llvm.lifetime.end.p0(i64 8, ptr %28) #3
  call void @llvm.lifetime.end.p0(i64 8, ptr %27) #3
  call void @llvm.lifetime.end.p0(i64 8, ptr %26) #3
  call void @llvm.lifetime.end.p0(i64 8, ptr %25) #3
  call void @llvm.lifetime.end.p0(i64 8, ptr %24) #3
  call void @llvm.lifetime.end.p0(i64 8, ptr %23) #3
  call void @llvm.lifetime.end.p0(i64 8, ptr %22) #3
  br label %146

146:                                              ; preds = %63
  br label %147

147:                                              ; preds = %146
  %148 = load i32, ptr %13, align 4, !tbaa !141
  %149 = add nsw i32 %148, 1
  store i32 %149, ptr %13, align 4, !tbaa !141
  br label %58

150:                                              ; preds = %62
  br label %151

151:                                              ; preds = %150
  %152 = load ptr, ptr %7, align 8
  %153 = load i32, ptr %152, align 4, !tbaa !141
  call void @__kmpc_for_static_fini(ptr @1, i32 %153)
  call void @llvm.lifetime.end.p0(i64 4, ptr %21) #3
  call void @llvm.lifetime.end.p0(i64 4, ptr %20) #3
  call void @llvm.lifetime.end.p0(i64 4, ptr %19) #3
  call void @llvm.lifetime.end.p0(i64 4, ptr %18) #3
  call void @llvm.lifetime.end.p0(i64 4, ptr %17) #3
  br label %154

154:                                              ; preds = %151, %6
  call void @llvm.lifetime.end.p0(i64 4, ptr %15) #3
  call void @llvm.lifetime.end.p0(i64 4, ptr %14) #3
  call void @llvm.lifetime.end.p0(i64 4, ptr %13) #3
  ret void
}