; Function Attrs: alwaysinline norecurse nounwind uwtable
define internal void @_ZNK8LightGBM18CrossEntropyLambda12GetGradientsEPKdPfS3_.omp_outlined.77(ptr noalias noundef readonly captures(none) %0, ptr noalias readnone captures(none) %1, ptr noundef readonly captures(none) %2, ptr noundef nonnull readonly align 8 captures(none) dereferenceable(8) %3, ptr noundef nonnull readonly align 8 captures(none) dereferenceable(8) %4, ptr noundef nonnull readonly align 8 captures(none) dereferenceable(8) %5) #14 {
  %7 = alloca i32, align 4
  %8 = alloca i32, align 4
  %9 = alloca i32, align 4
  %10 = alloca i32, align 4
  %11 = getelementptr inbounds nuw i8, ptr %2, i64 8
  %12 = load i32, ptr %11, align 8, !tbaa !543
  %13 = icmp sgt i32 %12, 0
  br i1 %13, label %14, label %69

14:                                               ; preds = %6
  %15 = add nsw i32 %12, -1
  call void @llvm.lifetime.start.p0(i64 4, ptr nonnull %7) #15
  store i32 0, ptr %7, align 4, !tbaa !127
  call void @llvm.lifetime.start.p0(i64 4, ptr nonnull %8) #15
  store i32 %15, ptr %8, align 4, !tbaa !127
  call void @llvm.lifetime.start.p0(i64 4, ptr nonnull %9) #15
  store i32 1, ptr %9, align 4, !tbaa !127
  call void @llvm.lifetime.start.p0(i64 4, ptr nonnull %10) #15
  store i32 0, ptr %10, align 4, !tbaa !127
  %16 = load i32, ptr %0, align 4, !tbaa !127
  call void @__kmpc_for_static_init_4(ptr nonnull @1, i32 %16, i32 34, ptr nonnull %10, ptr nonnull %7, ptr nonnull %8, ptr nonnull %9, i32 1, i32 1)
  %17 = load i32, ptr %8, align 4, !tbaa !127
  %18 = call i32 @llvm.smin.i32(i32 %17, i32 %15)
  store i32 %18, ptr %8, align 4, !tbaa !127
  %19 = load i32, ptr %7, align 4, !tbaa !127
  %.not42 = icmp sgt i32 %19, %18
  br i1 %.not42, label %._crit_edge, label %.lr.ph

.lr.ph:                                           ; preds = %14
  %20 = getelementptr inbounds nuw i8, ptr %2, i64 24
  %21 = load ptr, ptr %20, align 8, !tbaa !545
  %22 = getelementptr inbounds nuw i8, ptr %2, i64 16
  %23 = load ptr, ptr %22, align 8, !tbaa !544
  %24 = load ptr, ptr %3, align 8, !tbaa !152
  %25 = load ptr, ptr %4, align 8, !tbaa !150
  %26 = load ptr, ptr %5, align 8, !tbaa !150
  %27 = sext i32 %19 to i64
  br label %28

28:                                               ; preds = %.lr.ph, %28
  %indvars.iv = phi i64 [ %27, %.lr.ph ], [ %indvars.iv.next, %28 ]
  %29 = getelementptr inbounds float, ptr %21, i64 %indvars.iv
  %30 = load float, ptr %29, align 4, !tbaa !175
  %31 = fpext float %30 to double
  %32 = getelementptr inbounds float, ptr %23, i64 %indvars.iv
  %33 = load float, ptr %32, align 4, !tbaa !175
  %34 = fpext float %33 to double
  %35 = getelementptr inbounds double, ptr %24, i64 %indvars.iv
  %36 = load double, ptr %35, align 8, !tbaa !153
  %37 = call double @exp(double noundef %36) #15, !tbaa !127
  %38 = call double @log1p(double noundef %37) #15, !tbaa !127
  %39 = fneg double %31
  %40 = fmul double %38, %39
  %41 = call double @exp(double noundef %40) #15, !tbaa !127
  %42 = fsub double 1.000000e+00, %41
  %43 = fdiv double 1.000000e+00, %37
  %44 = fdiv double %34, %42
  %45 = fsub double 1.000000e+00, %44
  %46 = fmul double %45, %31
  %47 = fadd double %43, 1.000000e+00
  %48 = fdiv double %46, %47
  %49 = fptrunc double %48 to float
  %50 = getelementptr inbounds float, ptr %25, i64 %indvars.iv
  store float %49, ptr %50, align 4, !tbaa !175
  %51 = fsub double 1.000000e+00, %42
  %52 = fdiv double 1.000000e+00, %51
  %53 = fadd double %37, 1.000000e+00
  %54 = fmul double %37, %31
  %55 = fmul double %53, %53
  %56 = fdiv double %54, %55
  %57 = fadd double %52, -1.000000e+00
  %58 = fmul double %57, %57
  %59 = fdiv double %52, %58
  %60 = call double @llvm.fmuladd.f64(double %31, double %37, double 1.000000e+00)
  %61 = fsub double %60, %52
  %62 = fmul double %61, %59
  %63 = call double @llvm.fmuladd.f64(double %34, double %62, double 1.000000e+00)
  %64 = fmul double %56, %63
  %65 = fptrunc double %64 to float
  %66 = getelementptr inbounds float, ptr %26, i64 %indvars.iv
  store float %65, ptr %66, align 4, !tbaa !175
  %indvars.iv.next = add nsw i64 %indvars.iv, 1
  %67 = load i32, ptr %8, align 4, !tbaa !127
  %68 = sext i32 %67 to i64
  %.not.not = icmp slt i64 %indvars.iv, %68
  br i1 %.not.not, label %28, label %._crit_edge

._crit_edge:                                      ; preds = %28, %14
  call void @__kmpc_for_static_fini(ptr nonnull @1, i32 %16)
  call void @llvm.lifetime.end.p0(i64 4, ptr nonnull %10) #15
  call void @llvm.lifetime.end.p0(i64 4, ptr nonnull %9) #15
  call void @llvm.lifetime.end.p0(i64 4, ptr nonnull %8) #15
  call void @llvm.lifetime.end.p0(i64 4, ptr nonnull %7) #15
  br label %69

69:                                               ; preds = %._crit_edge, %6
  ret void
}